(lp0
S'http://qz.com/183016/we-analyzed-37-years-worth-of-warren-buffetts-shareholder-letters-heres-what-we-found/'
p1
aS'https://www.dropbox.com/s/45h1edhstrc3bsv/Amazon%20Shareholder%20Letters%2097-12.pdf'
p2
aS'http://fortune.com/2014/02/24/buffetts-annual-letter-what-you-can-learn-from-my-real-estate-investments/'
p3
aS'http://techcrunch.com/2014/04/10/amazons-annual-shareholder-letter-talks-drones-and-grocery-delivery-not-sales-and-supreme-court-cases/'
p4
aS'http://www.publishersweekly.com/pw/by-topic/industry-news/bookselling/article/61811-bezos-pens-long-amazon-shareholder-letter.html'
p5
aS'http://www.forbes.com/sites/robertberger/2014/03/19/5-key-takeaways-from-buffetts-2013-letter-to-shareholders/'
p6
aS'http://www.kiplinger.com/article/investing/T052-C000-S002-what-you-can-learn-from-shareholder-letters.html'
p7
aS'http://betaworks.com/shareholder/'
p8
aS'http://online.barrons.com/news/articles/SB50001424053111904009804579248280874966654'
p9
aS'http://www.directorship.com/power-of-the-pen-best-annual-letters-of-the-fortune-200/'
p10
a.