(lp0
S'http://www.accor.com/en/finance/retail-shareholders/letter-to-shareholders.html'
p1
aS'http://www.aethlonmedical.com/knowledge-center/shareholder-letters/'
p2
aS'http://www.samplelettersworld.com/sample-letters/welcome-letters/1454-welcome-a-new-shareholder-sample-letter-5'
p3
aS'http://cook-n-the-books.com/2013/04/14/its-all-about-the-long-term-amazon-shareholder-letters/'
p4
aS'http://www.angiogenex.com/shareholder-letters.html'
p5
aS'http://borsheimsbrk.com/tag/shareholder-letter'
p6
aS'https://plumasbank.com/default.aspx?v=808360df-1115-4314-9225-fca7f7817202&t=main_noad'
p7
aS'http://www.emc.com/collateral/about/investor-relations/2014-letter-to-shareholders.pdf'
p8
aS'http://www.areva.com/EN/finance-1289/shareholders-letter.html'
p9
aS'http://www.tungstenmining.com/docs/0063%20TGN%20Letters%20to%20Eligbile%20&%20Ineligible%20Shareholders%20(Entitlements%20Issue)%2003%20Apr%2014.pdf'
p10
aS'http://www.societegenerale.com/en/measuring-our-performance/shareholders/letter-to-shareholders'
p11
aS'http://www.wolverineworldwide.com/investor-relation/annual-reports/WWW_2013_oar/letter.html'
p12
aS'http://autonomyaccounts.org/open-letter-from-mike-lynch-to-the-shareholders-of-hewlett-packard-2/'
p13
aS'https://medium.com/@aarondignan/letter-to-our-shareholders-25e27b85ebf6'
p14
aS'https://www.boardmember.com/BRC.aspx?taxid=272&id=5225'
p15
aS'http://www.ft.com/cms/s/2/a2109a54-4d88-11e1-b96c-00144feabdc0.html'
p16
aS'http://blog.nader.org/2014/01/15/ralph-naders-letter-top-10-institutional-shareholders-liberty-media-corporation/'
p17
aS'http://www.goodreads.com/book/show/17972688-berkshire-hathaway-letters-to-shareholders'
p18
aS'http://www.news.com.au/finance/money/warren-buffett-reveals-golden-rules-in-annual-letter-to-berkshire-hathaway-shareholders/story-e6frfmdr-1226836794534'
p19
aS'http://www.howardhughes.com/news8.html'
p20
aS'http://www.conference-board.org/subsites/index.cfm?id=2'
p21
aS'http://www.slate.com/blogs/future_tense/2013/10/09/steve_ballmer_final_letter_to_shareholders_microsoft_ceo_sets_buzzword_record.html'
p22
aS'http://www.adm.com/en-US/investors/shareholder_reports/2013AnnualReport/Pages/LettertoShareholders.aspx'
p23
aS'http://investors.nikeinc.com/Theme/Nike/files/doc_financials/AnnualReports/2011/'
p24
aS'http://pragcap.com/warren-buffetts-annual-shareholder-letter'
p25
aS'http://www.linkedin.com/today/post/article/20130805231302-25760-stop-the-presses-a-new-press-lord-appears'
p26
aS'http://www.marketplace.org/topics/business/buffett%E2%80%99s-shareholder-letter-dangles-clues'
p27
aS'http://www.zurich.com/internet/main/SiteCollectionDocuments/letter-to-shareholders/lts-annual-results-2013-en.pdf'
p28
aS'http://www.cyberlux.com/2840_1400_listings.html'
p29
aS'http://www.slideshare.net/razinmustafiz/amazon-shareholder-letters-1997-2011'
p30
aS'http://www.hedgefundletters.com/maverick-capital/'
p31
aS'http://www.valueinvestingworld.com/2014/03/prem-watsas-2013-shareholder-letter.html'
p32
aS'http://www.iasplus.com/en-gb/publications/uk/comment-letters/deloitte-cl-fca-cp13-15'
p33
aS'http://ecoms.primefocusworld.com/ar/letters.html'
p34
aS'https://www.merck.com/finance/proxy/letter-from-chairman.pdf'
p35
aS'http://www.bespokeinvest.com/thinkbig/2010/3/2/warren-buffetts-berkshire-hathaway-annual-shareholder-letter.html'
p36
aS'http://valetudoinvesting.blogspot.com/2008/07/best-shareholder-letters.html'
p37
aS'http://www.heartlandfunds.com/media/Fund-Literature/Shareholder-Letters/Heartland-Funds-3Q13-Shareholder-Letter.pdf'
p38
aS'http://www.microsoft.com/INVESTOR/REPORTS/AR12/shareholder-letter/index.html'
p39
aS'http://www.thetradingreport.com/2013/07/05/shareholder-letters-a-worthy-read/'
p40
aS'http://blog.nacdonline.org/tag/shareholder-letters/'
p41
aS'http://www.siliconbeat.com/2007/08/29/another-day-another-angry-shareholder-letter-pdl-biopharma/'
p42
aS'http://www.zinio.com/magazine/Buffetts-Bites:-The-Essential-Investors-Guide-to-Warren-Buffetts-Shareholder-Letters/pr-500637572/cat-cat2362315/prnt-cat2362909'
p43
aS'http://www.derekscruggs.com/required-reading-warren-buffet-shareholder-letters.html'
p44
aS'http://www.allcountry.easyetf.com/central/who-are-we/news/20130913_coquille-fusion-avis-aux-port.page?l=eng'
p45
aS'http://247wallst.com/special-report/2013/08/07/the-least-candid-companies/'
p46
aS'http://www.theguardian.com/money/2013/mar/05/shareholders-are-not-investors'
p47
aS'http://www.ge.com/ar2012/#!report=letter-to-shareowners'
p48
aS'http://www.thefiscaltimes.com/Columns/2012/02/28/Buffett-Decoding-the-Oracles-Shareholder-Letter'
p49
aS'http://www.weyerhaeuser.com/annualreport/ar97/shareholder.htm'
p50
aS'http://www.mofo.com/files/Uploads/Images/Frequently-Asked-Questions-about-Shareholder-Proposals-and-Proxy-Access.pdf'
p51
aS'http://www.investmentnews.com/article/20100829/REG/308299992'
p52
aS'http://www.rationalwalk.com/?p=1059'
p53
aS'http://www.quora.com/Business/Which-CEOs-write-some-of-the-best-shareholder-letters'
p54
aS'http://www.xerox.com/about-xerox/annual-report-2012/ceo-letter/enus.html'
p55
aS'http://gigaom.com/2013/04/12/amazon-ceo-bezos-in-shareholder-letter-authors-are-our-customers-too/'
p56
aS'http://gannonandhoangoninvesting.com/blog/ark-restaurants-one-of-my-favorite-shareholder-letters.html'
p57
aS'http://www.independent.co.uk/voices/letters/letters-when-a-shareholder-tried-to-curb-boardroom-pay-6266236.html'
p58
aS'https://www.facebook.com/pages/Warren-Buffets-Shareholder-Letters/105863439449025'
p59
aS'http://ianrobinson.net/bhlc-2009-notes-and-reviews-of-berkshire-hathaway-shareholder-letter/'
p60
aS'http://wealthpilgrim.com/how-to-read-shareholder-letters/'
p61
aS'http://www.technologypartners.com/press/Q213_Tesla_Motors_Shareholder_Letter.pdf'
p62
aS'http://www.olsteinfunds.com/pdf/olstein_news_AAII_Oct_2010_learn_from_letters.pdf'
p63
aS'http://www.uraniumenergy.com/investor_info/ceo_letters/'
p64
aS'http://blogs.adobe.com/digitalpublishing/2013/06/jpmorgan-chase.html'
p65
aS'http://www.rittenhouserankings.com/books/buffetts-bites-the-essential-investors-guide-to-warren-buffetts-shareholder-letters/'
p66
aS'http://outlierallocators.com/tag/shareholder-letters/'
p67
aS'http://www.wallstreetmanna.com/2008/08/legg-masons-bill-miller-shareholder.html'
p68
aS'http://www.academia.edu/Documents/in/Shareholder_Letters'
p69
aS'http://www.stryker.com/2011/letter-hartman-page1.php'
p70
aS'http://www.ceo.com/technology_and_innovation/innovation-lessons-from-bezos-letters-to-shareholders/'
p71
aS'http://www.publicisgroupe.com/en/relations/letters'
p72
aS'http://www.findingdulcinea.com/news/business/2009/april/JPMorgan-Chase-Shareholder-Letter-Burnishes-Dimon-s-Sparkle.html'
p73
aS'http://www.tampabay.com/news/business/letters/letters-duke-shareholder-ashamed-of-the-public-services-commissions-actions/2149031'
p74
aS'http://www.lowes.com/AboutLowes/AnnualReports/annual_report_12/shareholder-letter.html'
p75
aS'http://www.borthwick.com/weblog/wp-content/uploads/2012/04/betaworks-shareholder-letter.pdf'
p76
aS'http://www.meadvillegroup.com/letter.html'
p77
aS'http://www.crimsoncircle.dk/?page_id=39'
p78
aS'http://www.trinitybk.com/pdf/investor/First%20Quarter%202011%20Shareholder%20letter%20and%20Press%20Release.pdf'
p79
aS'http://www.ritholtz.com/blog/wp-content/uploads/2011/02/T2-Partners-Jan-2011.pdf'
p80
aS'http://www.transcanada.com/investor/annual_reports/2012/ceos-letter-to-shareholders.html'
p81
aS'http://www.telegraph.co.uk/finance/newsbysector/banksandfinance/7536351/Shareholder-letters-to-Lord-Myners-reveal-disparity-over-bank-pay.html'
p82
aS'http://www.pfcb.com/docs/AnnualReports/PFCBAnnualReport2004.pdf'
p83
aS'http://archive.grrn.org/beverage/shareholders/letter_coke_entire.html'
p84
aS'http://www.bigcatenergy.com/Investors-Shareholder-Letters.aspx'
p85
aS'http://www.zambeziresources.com/_content/documents/991.pdf'
p86
aS'http://investor.directv.com/'
p87
aS'http://www.ey.com/US/en/Issues/Governance-and-reporting/Audit-Committee/BoardMatters-Quarterly-April-2013_Preparing-for-shareholder-engagement'
p88
aS'http://www.goldcorp.com/files/ar2012/letter.html'
p89
aS'https://www.morganstanley.com/2013ams/MS-Shareholder-Letter.pdf'
p90
aS'http://businessroundtable.org/resources/letter-to-gary-retelny-regarding-2013-iss-proxy-voting-policy-change'
p91
aS'http://news.walmart.com/news-archive/2013/04/22/walmart-releases-2013-annual-shareholders-meeting-materials'
p92
aS'http://www.verasage.com/blog/bleeding-edge/from_spreadsheets_to_shareholder_letters_a_value_proposition_for_404_work/'
p93
aS'http://rememberingtheobvious.files.wordpress.com/2012/08/wesco-charlie-munger-letters-1983-2009-collection.pdf'
p94
aS'http://www.att.com/Investor/ATT_Annual/2012/letter_to_investors.html'
p95
aS'http://www.buffettsecrets.com/letter-to-shareholders-2012.htm'
p96
aS'http://www.stockideas.org/warren-buffetts-berkshire-hathaway-letters-shareholders-1965-2012/'
p97
aS'http://www.unitedhealthgroup.com/2012-annual-report/letter-to-share-holders.aspx'
p98
a.