(lp0
S'http://www.coca-colacompany.com/investors/annual-other-reports'
p1
aS'http://www.bullfax.com/?q=node-warren-buffetts-berkshire-hathaway-annual-shareholder-l'
p2
aS'http://www.theweek.co.uk/the-business-thursday-july-17-2014'
p3
aS'http://sicmoney.blogspot.com/2008/03/shareholder-letters.html'
p4
aS'http://www.wisegeek.net/what-should-i-do-with-a-shareholder-letter.htm'
p5
aS'http://www.liberianews.net/index.php/sid/221680997/scat/3a8a80d6f705f8cc'
p6
aS'http://finance.yahoo.com/news/inplay-briefing-com-055139997.html'
p7
aS'http://fbcnews.com/a-Home-actId0ee6dda80326a937bb8d1dd3b33bc1e.html'
p8
aS'http://www.statejournal.com/story/26051536/china-zenix-auto-international-announces-withdrawal-of-preliminary-restructuring-proposal'
p9
aS'http://www.theaustralian.com.au/business/companies/court-green-light-for-djs-takeover/story-fn91v9q3-1226992124979'
p10
aS'http://page2rss.com/c3ebbcfd26ac21c5c4c41b7dbdcaed9c'
p11
aS'http://www.nepalnews.net/index.php/sid/221680997/scat/3a8a80d6f705f8cc'
p12
aS'http://www.multichannel.com/news/tv-everywhere/disgruntled-investors-demand-resignation-synacor-s-chairman/382588'
p13
aS'http://www.cityam.com/1405558113/boards-win-day-despite-investor-revolts'
p14
aS'http://www.reddit.com/r/investing/comments/2b0zob/the_best_south_korean_etf_for_long_term/'
p15
aS'http://holidaysoo.com/shareholder/shareholder-letters-berkshire-hathaway-inc.html'
p16
aS'http://www.sharenet.co.za/v3/sens_display.php?tdate=20140718160200&seq=37'
p17
aS'http://www.providencejournal.com/business/press-releases/20140717-synacor-shareholders-respond-to-rights-plan.ece'
p18
aS'http://www.canticlefarm.org/'
p19
aS'http://www.barbadosnews.net/index.php/sid/221680997/scat/3a8a80d6f705f8cc'
p20
aS'http://investor.nvidia.com/'
p21
aS'http://www.hkexnews.hk/listedco/listconews/mainindex/SEHK_LISTEDCO_DATETIME_TODAY.HTM'
p22
aS'http://jobs.aol.com/videos/advice/ackman-allergan-rules-for-shareholder-meetings-too-onerous/518327297/'
p23
aS'http://ewallstreeter.com/wisdom-seekers-goldmine-books-mentioned-in-berkshire-shareholder-letters-to-7724/'
p24
aS'http://ukbooks.sg/en/book/Buffetts-Bites-the-Essential-Investors-Guide-to-Warren-Buffetts-Shareholder-Letters-9780071823289'
p25
aS'http://www.xmarks.com/site/www.thirdavenuefunds.com/ta/shareholder-letters-mf.asp'
p26
aS'http://www.similarsites.com/site/shareholder-disputes.info'
p27
aS'http://wdn.publog.jp/archives/30640767.html'
p28
aS'http://www.leucadia.com/toc_c-p_letters.html'
p29
aS'http://www.stockholmnews.net/index.php/sid/221680997/scat/3a8a80d6f705f8cc'
p30
aS'http://www.airingnews.com/articles/1161655/shareholder-letters-telling-it-like-it-is/'
p31
aS'http://wikitheme.warmachine.im/Berkshire-Hathaway-Shareholder-Letters'
p32
aS'http://www.myshopping.com.au/ZM--1244977221_Buffett_s_Bites_The_Essential_Investor_s_Guide_to_Warren_Buffett_s_Shareholder_Letters'
p33
aS'http://rgfhj.allalla.com/285/buffett-s-bites-the-essential-investor-s-guide-to-warren-bubuffett-s-bites-the-essential-investor-s-guide-to-warren-buffett-s-shareholder-letters-ffett-s-shareholder-letters'
p34
aS'http://pdfcast.org/paid/9780071739320'
p35
aS'http://www.imagetoss.com/shareholder-letters-valuebull-com--21529419.htm'
p36
aS'http://www.filmvz.com/shareholder/shareholder-letters-berkshire-hathaway-inc.htm'
p37
aS'http://www.filmvz.com/warren/warren-buffett-shareholder-letters-berkshire-hathaway.htm'
p38
aS'http://huntington-ir.com/'
p39
aS'http://pernod-ricard.com/81/investors'
p40
a.