(lp0
S'http://ir.diamond-hill.com/GenPage.aspx?IID=112960&GKP=1073748720'
p1
aS'http://www.pg.com/annualreport2011/letter/'
p2
aS'http://www.mymoneyblog.com/every-berkshire-hathaway-shareholder-letter.html'
p3
aS'http://www.pasminco.com.au/index.php/shareholder-information/letters-to-shareholder'
p4
aS'http://blogs.hbr.org/2011/02/find-real-gold-in-warren-buffe/'
p5
aS'http://www.sn-mining.de/en/investors/shareholder-letters---login'
p6
aS'http://www.chemweek.com/sections/business_finance/usa_americas/Schulman-and-Ferro-trade-barbs-in-shareholder-letters_51513.html'
p7
aS'http://kottke.org/13/03/2012-shareholder-letter-from-warren-buffett'
p8
aS'http://aethlonmedical.investorroom.com/index.php?s=68&item=66'
p9
aS'http://www.proxymonitor.org/forms/pmr_06.aspx'
p10
aS'http://www.1mobile.com/hathaway-shareholder-letters-1202078.html'
p11
aS'http://www.metallinemining.com/s/ShareholderLetters.asp?ReportID=429019&_Type=Shareholder-Letters&_Title=Gregory-A.-Hahns-Presidents-Letter'
p12
aS'https://www.intelligize.com/blog/news-and-events/shareholder-proposals-update-and-trends/'
p13
aS'http://plasq.com/data/img/n413673.html'
p14
aS'http://baltimore.citybizlist.com/article/campbell-co-ceo-terri-becks-reassures-investors-shareholder-letters-cbl-3'
p15
aS'http://www.bloomberg.com/apps/news?pid=newsarchive&sid=alWjtBydL3u8'
p16
aS'http://www.bivio.com/materialgirls/file/Public/Education/Mutual%20Funds/Mutual%20Funds%20100%20Series/Mutual%20Fund%20109%20Important%20Fund%20Documents,%20Part%202.doc'
p17
aS'http://www.allthingsdistributed.com/2011/04/the_amazoncom_2010_shareholder.html'
p18
aS'http://www.shell.com/global/aboutshell/investor/shareholder-information/agm/2011/remuneration-letter.html'
p19
aS'http://stocktwits.com/GeoffGannon/message/1851525'
p20
aS'http://www.safalniveshak.com/wp-content/uploads/2012/09/Seth-Klarman-Baupost-Group-Letters.pdf'
p21
aS'http://www.justice.gov/usao/nys/pressreleases/December13/EastRiverHousingLawsuitPR.php'
p22
aS'http://articles.chicagotribune.com/2007-04-15/business/0704140010_1_wal-mart-stores-wal-mart-spokesman-john-simley-ark-based-wal-mart'
p23
aS'http://www.torontopubliclibrary.ca/detail.jsp?Entt=RDM2673794&R=2673794'
p24
aS'http://www.quadris-funds.com/uploads/news/shareholder-letters/'
p25
aS'https://exchanges.nyx.com/judy-mclevey/no-action-letters-summary-2014-proxy-season?page=1'
p26
aS'http://www.lexology.com/library/detail.aspx?g=52eb733e-f9c5-46ce-befe-87f27c8d4871'
p27
aS'http://lawandmore.typepad.com/law_and_more/2009/09/sherwinwilliams-ranks-1-for-candid-ceo-shareholder-letters.html'
p28
aS'http://www.timrosenblatt.com/blog/wp-content/uploads/2013/10/Amazon-Shareholder-Letters-97-12.pdf'
p29
aS'http://www.mfwire.com/common/artprint2007.asp?storyID=40366&wireid=2'
p30
aS'http://www.heraldsun.com.au/businessold/city-pacific-told-to-explain-shareholder-letters/story-e6frfh4f-1111115672225'
p31
aS'http://investor.walgreens.com/'
p32
aS'https://mrc.daveramsey.com/modules/fusetalk3/forum/messageview.cfm?catid=24&threadid=420884'
p33
aS'http://www.bizjournals.com/prnewswire/press_releases/2012/03/06/DE65694'
p34
aS'http://www.newswire.ca/en/story/624395/adamus-resources-limited-rights-issue-shareholder-letters'
p35
aS'http://www.dollartreeinfo.com/investors/'
p36
aS'http://www.valuebull.com/Shareholder+Letters'
p37
aS'http://www.indiabookstore.net/isbn/9780071067232'
p38
aS'http://www.pinterest.com/pin/377387643746981365/'
p39
aS'http://www.1percentnews.com/?p=2230'
p40
aS'http://www.amazon.in/Buffetts-Bites-Essential-Investors-Shareholder/dp/0071739327'
p41
aS'https://nzx.com/files/attachments/146809.pdf'
p42
aS'http://www.fanniemae.com/resources/file/ir/pdf/proxy-statements/2006_ceo_shareholder_letter.pdf'
p43
aS'http://aboveaverageodds.files.wordpress.com/2009/12/baupost-fund-letters-1995-2001.pdf'
p44
aS'http://article.wn.com/view/2014/05/04/Shareholder_letters_telling_it_like_it_is/'
p45
aS'http://gregspeicher.com/?p=4540'
p46
aS'http://www.berkway.se/letters.html'
p47
aS'http://www.veooz.com/news/4H9eO_H.html'
p48
aS'http://investorshub.advfn.com/boards/read_msg.aspx?message_id=13130144'
p49
aS'http://investorshub.advfn.com/boards/read_msg.aspx?message_id=14131964'
p50
aS'http://www.wwww.agoracom.com/ir/patriot/forums/discussion/topics/297624-historic-intraday-timing-of-rg-shareholder-letters/?message_id=1028942'
p51
aS'http://halfpricedollar.blogspot.com/2009/04/seth-klarman-shareholder-letters.html'
p52
aS'https://www.odesk.com/o/jobs/job/_~014484c5de48194b81/'
p53
aS'http://www.amazon.fr/Buffetts-Bites-Essential-Investors-Shareholder-ebook/dp/images/B003JH863O'
p54
aS'http://klse.i3investor.com/blogs/kianweiaritcles/47837.jsp'
p55
aS'http://shareholder-letters.wikispaces.com/wiki/changes'
p56
aS'http://ljrittenhousebooks.wordpress.com/2010/03/29/guide-to-warren-buffett%E2%80%99s-shareholder-letters/'
p57
aS'http://en.wikipedia.org/wiki/Elliott_Management_Corporation'
p58
aS'http://thienrong.blogspot.com/2009/09/reading-warren-buffett-shareholder.html'
p59
aS'http://caterpillarcowboy.com/post/78282885529/anyone-else-spend-their-saturday-nights-reading'
p60
aS'http://sgmarketwatch.com/2014/05/shareholder-letters-telling-it-like-it-is/'
p61
aS'http://www.prnewswire.com/news-releases/greektown-receives-two-shareholder-letters-containing-nominations-to-its-board-of-directors-141653953.html'
p62
aS'http://mungerisms.blogspot.com/2010/04/wesco-1985-shareholder-letter.html'
p63
aS'http://globenewswire.com/news-release/2012/08/13/482712/10001821/en/Warren-Buffett-s-Annual-Shareholder-Letter-Takes-the-Gold.html'
p64
aS'http://www.dailyfinance.com/2013/06/24/first-manhattan-sends-letter-to-vivus-stockholders/'
p65
aS'http://www.chicagobusiness.com/article/20140718/NEWS07/140719797/activist-adviser-wants-sec-probe-of-walgreen'
p66
aS'http://themoneymash.com/shareholder-letters'
p67
aS'http://investors.zillow.com/'
p68
aS'http://www.asiaing.com/buffetts-bites-the-essential-investors-guide-to-warren-buffetts-shareholder-le.html'
p69
aS'http://www.mightyape.co.nz/product/Buffetts-Bites-the-Essential-Investors-Guide-to-Warren-Buffetts-Shareholder-Letters/21587588/images/15341443'
p70
aS'http://mebfaber.com/2014/07/18/important-news-reminder-gtaa-etf/'
p71
aS"http://avaxsearch.net/?q=%20Buffett's%20Bites:%20The%20Essential%20Investor's%20Guide%20to%20Warren%20Buffett's%20Shareholder%20Letters"
p72
aS'http://indianvalue.blogspot.com/2006/03/nuggets-of-wisdom-from-buffetts_10.html'
p73
aS'http://www.sierraleonenews.net/index.php/sid/221680997/scat/3a8a80d6f705f8cc'
p74
aS'http://kellycrow.wordpress.com/tag/shareholder-letter/'
p75
aS'http://www.heraldonline.com/2014/07/17/6149781/augustus-advisors-releases-letter.html?sp=/100/773/385/'
p76
aS'http://ir.americanexpress.com/'
p77
aS'http://www.nigeriannews.net/index.php/sid/221680997/scat/3a8a80d6f705f8cc'
p78
aS'http://www.econbiz.de/Record/buffett-s-bites-the-essential-investors-s-guide-to-warren-buffett-s-shareholder-letters-rittenhouse/10008905843'
p79
aS'http://www.crh.com/'
p80
aS'http://seniorscientific.com/media/news/manhattan-scientifics-ceo-issues-letter-to-shareholders/'
p81
aS'http://stockpromoters.com/news-letters.aspx?symbol=PEIID'
p82
aS'http://player.mashpedia.com/player.php?q=jbYHOQu4FuU&lang='
p83
aS'http://myblog.marketing-4.com/shareholder-letters-telling-it-like-it-is/'
p84
aS'http://sundancer.eu/post/46502159/berkshire-hathaway-shareholder-letters'
p85
aS'http://ibnmoney.com/us/2014/05/04/shareholder-letters-telling-it-like-it-is/'
p86
aS'http://ir.avisbudgetgroup.com/'
p87
aS'https://www.cnyc.com/'
p88
aS'http://www.buffalonews.com/business/synacors-dissident-shareholders-fire-back-20140717'
p89
aS'http://investor.stamps.com/'
p90
aS'http://www.moneylife.in/article/prithvi-info-solutions-second-largest-stakeholder-denies-investing-in-the-company/38092.html'
p91
a.