(lp0
S'http://seattletimes.com/html/businesstechnology/2023346204_amazonproxyxml.html'
p1
aS'http://online.wsj.com/news/articles/SB10001424052702304886904579473441821446148'
p2
aS'http://www.cliffsnaturalresources.com/EN/2014AGM/Letters/Pages/default.aspx'
p3
aS'https://orienscorp.wordpress.com/category/shareholder-letters-updates/'
p4
aS'http://simply-docs.co.uk/Shareholder_Documents/Shareholder_Letters_and_Forms'
p5
aS'http://orienscorp.wordpress.com/shareholder-letters-updates/'
p6
aS'http://smallbusiness.chron.com/write-business-shareholder-letter-66120.html'
p7
aS'http://www.csisoftware.com/investor-relations/shareholder-reports/'
p8
aS'http://www.ishmaelscorner.com/2014/03/03/warren-buffetts-storytelling-transforms-shareholders-letter/'
p9
aS'http://www.wyattresearch.com/article/warren-buffett-shareholder-letter/'
p10
aS'http://www.theverge.com/2013/10/7/4813586/ballmers-final-shareholder-letter'
p11
aS'http://www.ibm.com/annualreport/2013/chairmans-letter.html'
p12
aS'https://twitter.com/Borthwick/status/296026426078007297'
p13
aS'http://www.wendelgroup.com/en/suscribe-to-the-shareholders-letter-online_176.html'
p14
aS'http://www.investorwords.com/4530/shareholders_letter.html'
p15
aS'http://www.dandodiary.com/2014/03/articles/warren-buffett/a-closer-look-at-warren-buffets-letter-to-berkshire-shareholders/'
p16
aS'http://www.alphaprotech.com/investors/letterToShareholders.aspx'
p17
aS'http://174.128.42.153/ta/shareholder-letters-mf.asp'
p18
aS'http://www.shareholderrespect.org/category/resources/letters/'
p19
aS'http://www.businesswire.com/news/home/20140325005654/en/eBay-Issues-Letter-Shareholders'
p20
aS'http://www.digitalsparkmarketing.com/general-business/bezos-shareholder-letter/'
p21
aS'http://www.inc.com/francesca-fenzi/5-lessons-from-warren-buffett.html'
p22
aS'http://www.inc.com/erik-sherman/warren-buffett-shareholder-letter-5-tips-for-running-business.html'
p23
aS'https://www.midlandsb.com/assets/midland/pdf/investors/2014_first_quarter_shareholder_letter.pdf'
p24
aS'http://www.loreal-finance.com/eng/letters-to-shareholders'
p25
aS'http://www.rbs.com/news/2014/02/Letter-to-shareholders.html'
p26
aS'http://www.trin.net/Shareholderletter.asp'
p27
aS'http://www.barnesandnoble.com/w/buffetts-bites-l-j-rittenhouse/1100936566?ean=9780071739320'
p28
aS'http://www.fairholmefunds.com/letters'
p29
aS'http://investors.amdocs.com/phoenix.zhtml?c=113915&p=irol-shareholderletter'
p30
aS'http://www.lvmh.com/investor-relations/shareholders/letter-to-shareholders'
p31
aS'https://www.gmo.com/websitecontent/GMO_QtlyLetter_ALL_4Q2013.pdf'
p32
aS'http://www.lundin-petroleum.com/eng/letter_to_shareholders.php'
p33
aS'http://www.lenovo.com/ww/lenovo/letters-registered.html'
p34
aS'http://www.amazon.co.uk/Berkshire-Hathaway-Letters-Shareholders-2013-ebook/dp/B00DUM1W3E'
p35
aS'http://mashable.com/2013/10/07/steve-ballmer-shareholder-letter/'
p36
aS'http://www.kevinrandom.com/recent-books-self-reliance-berkshire-shareholder-letters-so-good-they-cant-ignore-you/'
p37
aS'http://www.biglariholdings.com/'
p38
aS'http://www.kindermorgan.com/investor/kmi_annual_reports.cfm'
p39
aS'http://www.samsung.com/us/aboutsamsung/investor_relations/stock_info/meeting_shareholder/'
p40
aS'http://www.gurufocus.com/news/249550/eddie-lampert-2014-shareholder-letter'
p41
aS'http://www.cornerofberkshireandfairfax.ca/forum/general-discussion/jamie-dimon-shareholder-letter-awesome-read/'
p42
aS'http://www.sunlinkhealth.com/shareholder.html'
p43
aS'http://www.rexel.com/en/finance/shareholders/shareholders-letters/pages/index.php?rub=68'
p44
aS'http://www.psa-peugeot-citroen.com/en/letter-to-our-shareholders'
p45
aS'http://www.dividendmantra.com/2014/03/warren-buffetts-2013-annual-shareholder-letter-another-classic/'
p46
aS'http://www.valuewalk.com/2014/03/third-avenue-funds-shareholder-letters/'
p47
aS'http://www.dell.com/learn/us/en/uscorp1/secure/shareholder-letter'
p48
aS'http://www.washingtonpost.com/business/economy/netflix-lays-out-opposition-to-comcast-time-warner-cable-merger-in-shareholder-letter/2014/04/21/7552190a-c9a2-11e3-a75e-463587891b57_story.html'
p49
aS'http://www.thereformedbroker.com/2013/12/10/how-warren-buffett-writes-his-shareholder-letter/'
p50
aS'http://www.roche.com/investors/annual_reports/fyr13_letterstoshareholders.htm'
p51
aS'http://www.cisco.com/web/about/ac49/ac20/ac19/ar2013/letter.html'
p52
aS'http://blog.legalsolutions.thomsonreuters.com/corporate-counsel/tracking-shareholder-proposals-action-letters/'
p53
aS'http://daslee.me/reading-jeff-bezos'
p54
aS'https://www.exchangebank.com/stock-information/'
p55
aS'http://www.morningstar.co.uk/uk/news/109503/6-shareholder-letters-for-your-reading-list.aspx'
p56
aS'http://electrek.co/2014/05/07/tesla-motors-inc-first-quarter-2014-shareholder-letter/'
p57
aS'http://www.otcmarkets.com/stock/STBV/news/Strategic-Global-Investments-Issues-Letter-to-Shareholders?id=76191&b=y'
p58
aS'http://www.premiervalleybank.com/about-us/investor-relations/shareholder-quarterly.html'
p59
aS'http://www.bcb.bm/corporate-relations/shareholder-letters'
p60
aS'http://blogs.marketwatch.com/thetell/2013/03/01/10-quotes-from-warren-buffetts-letter-to-shareholders/'
p61
aS'http://www.sequoiafund.com/fund-reports.htm'
p62
aS'http://business.time.com/2013/10/08/twitters-brilliantly-short-letter-to-shareholders/'
p63
aS'http://20somethingfinance.com/warren-buffett-2014-shareholder-letter-provides-advice-for-beginner-investors/'
p64
aS'http://news.genius.com/Warren-buffett-letter-to-shareholders-2012-annotated'
p65
aS'http://www.renre.com/investors-information/annual-letters/'
p66
aS'http://yourbusiness.azcentral.com/write-business-shareholder-letter-13237.html'
p67
aS'http://economix.blogs.nytimes.com/2014/02/13/an-open-letter-to-jpmorgan-chase-shareholders/'
p68
aS'http://petronenergyii.com/blog/category/shareholder-letter/'
p69
aS'http://www.rbcpa.com/benjamin_graham/Graham-Newman_letters.html'
p70
aS'http://www.reflectscientific.com/shareholderletters.php'
p71
aS'http://www.baronfunds.com/news-commentary/quarterly/'
p72
aS'http://moneymorning.com/2013/03/05/what-warren-buffetts-shareholder-letter-tells-us/'
p73
aS'http://www.streetinsider.com/Corporate+News/Organovo+(ONVO)+Chairman,+CEO+Sends+Shareholder+Letter/9356937.html'
p74
aS'http://investors.nimblestorage.com/files/doc_financials/NMBL%20Q4%20FY14%20Shareholder%20Letter.pdf'
p75
aS'http://www.biznews.com/video_/2014/03/shapiro-on-warrens-annual-shareholder-letter-buffetts-all-in-bet-on-the-us-economy/'
p76
aS'http://beforeitsnews.com/financial-markets/2014/04/mikros-systems-mkrs-shareholder-letters-2698652.html'
p77
aS'http://www.nanostart.de/en/news/press-releases/portfolio/2014/1338-nanostart-holding-magforce-shareholder-letter'
p78
aS'http://www.tele2.com/Documents/documents/(iii)_Item_22(a)-(g)_-_Letters_referred_to_by_shareholder_Thorwald_Arvidsson.PDF'
p79
aS'http://www.morningstar.com/advisor/t/57886798/examples-of-excellent-shareholder-letters.htm'
p80
aS'http://www.monsanto.com/investors/pages/letter-to-shareowners.aspx'
p81
aS'http://corporate.betfair.com/investor-relations/shareholder-information/shareholder-letters.aspx'
p82
aS'http://www.charlotteobserver.com/2014/04/03/4816077/certusbank-shareholders-question.html'
p83
aS'http://bioxyne.com/investors/shareholder-letters'
p84
aS'http://investors.adp.com/letters.cfm'
p85
aS'http://www.dupont.com/annual-report/2013/letter-shareholders.html'
p86
aS'https://www.documentcloud.org/documents/801368-shareholder_letters.html'
p87
aS'http://www.sysco.com/aboutus/OnlineAnnual2013/shareholder.html'
p88
aS'http://www.ultimatesoftware.com/Investor-Relations-Annual-Report-Shareholder-Letter'
p89
aS'http://member.afraccess.com/media?id=CMN://3A401999&filename=20140213/TLS_01491183.pdf'
p90
aS'http://www.amcon.com/InvestorRelations/AnnualLettertoShareholders/tabid/225/Default.aspx'
p91
aS'http://www.palgrave-journals.com/crr/journal/v11/n4/full/crr200832a.html'
p92
aS'http://www.horizonkinetics.com/articles.asp?pageID=5'
p93
aS'http://www.frmocorp.com/letters.html'
p94
aS'http://thebuildnetwork.com/leadership/annual-letter/'
p95
aS'http://auxierasset.com/auxier-focus-fund/quarterly-shareholder-letter/'
p96
aS'https://investor.yahoo.net/releasedetail.cfm?releaseid=669584'
p97
aS'http://www.originenergy.com.au/1379/Shareholder-reports-letters'
p98
aS'http://www.siemens.com/investor/en/private_shareholders.htm'
p99
aS'http://www.marketfolly.com/2014/01/greenlight-capitals-q4-letter-new.html'
p100
a.